target datalayout = "e-m:e-p270:32:32-p271:32:32-p272:64:64-i64:64-i128:128-f80:128-n8:16:32:64-S128"
target triple = "x86_64-pc-linux-gnu"

%class.G1ConcurrentMark = type <{ ptr, ptr, %class.G1CMBitMap, %class.MemRegion, %class.G1CMRootMemRegions, %class.G1CMMarkStack, ptr, i32, i32, i32, [4 x i8], ptr, ptr, %class.TaskTerminator, %class.WorkerThreadsBarrierSync, %class.WorkerThreadsBarrierSync, i32, i8, i8, i8, i8, ptr, ptr, %class.NumberSeq, %class.NumberSeq, %class.NumberSeq, %class.NumberSeq, ptr, ptr, i32, i32, ptr, ptr, ptr, i8, [7 x i8] }>
%class.G1CMBitMap = type { %class.MarkBitMap, %class.G1CMBitMapMappingChangedListener }
%class.MarkBitMap = type { ptr, %class.MemRegion, i32, %class.BitMapView }
%class.BitMapView = type { %class.BitMap }
%class.BitMap = type { ptr, i64 }
%class.G1CMBitMapMappingChangedListener = type { %class.G1MappingChangedListener, ptr }
%class.G1MappingChangedListener = type { ptr }
%class.MemRegion = type { ptr, i64 }
%class.G1CMRootMemRegions = type <{ ptr, i64, i64, i64, i8, i8, [6 x i8] }>
%class.G1CMMarkStack = type { %"class.G1CMMarkStack::ChunkAllocator", [128 x i8], ptr, [120 x i8], ptr, i64, [112 x i8] }
%"class.G1CMMarkStack::ChunkAllocator" = type { i64, i64, i64, i64, i8, ptr, [128 x i8], i64, [120 x i8] }
%class.TaskTerminator = type { i32, ptr, [128 x i8], i32, [124 x i8], %class.Monitor, ptr }
%class.Monitor = type { %class.Mutex }
%class.Mutex = type { ptr, %class.PlatformMonitor, ptr }
%class.PlatformMonitor = type { %class.PlatformMutex, %union.pthread_cond_t }
%class.PlatformMutex = type { %union.pthread_mutex_t }
%union.pthread_mutex_t = type { %struct.__pthread_mutex_s }
%struct.__pthread_mutex_s = type { i32, i32, i32, i32, i32, i16, i16, %struct.__pthread_internal_list }
%struct.__pthread_internal_list = type { ptr, ptr }
%union.pthread_cond_t = type { %struct.__pthread_cond_s }
%struct.__pthread_cond_s = type { %union.__atomic_wide_counter, %union.__atomic_wide_counter, [2 x i32], [2 x i32], i32, i32, [2 x i32] }
%union.__atomic_wide_counter = type { i64 }
%class.WorkerThreadsBarrierSync = type <{ %class.Monitor, i32, i32, i8, i8, [6 x i8] }>
%class.NumberSeq = type { %class.AbsSeq, double, double }
%class.AbsSeq = type { ptr, i32, double, double, double, double, double }
%class.GrowableArrayBase = type { i32, i32 }
%class.WorkerTask.base = type <{ ptr, ptr, i32 }>
%class.G1PreConcurrentStartTask = type { %class.G1BatchedTask }
%class.G1BatchedTask = type { %class.WorkerTask.base, i32, ptr, %class.GrowableArrayCHeap, %class.GrowableArrayCHeap }
%class.GrowableArrayCHeap = type { %class.GrowableArrayWithAllocator.8 }
%class.GrowableArrayWithAllocator.8 = type { %class.GrowableArrayView.9 }
%class.GrowableArrayView.9 = type { %class.GrowableArrayBase, ptr }

@_ZN8Universe14_collectedHeapE = external global ptr, align 8
@_ZN24G1PreConcurrentStartTaskC1EN7GCCause5CauseEP16G1ConcurrentMark = hidden unnamed_addr alias void (ptr, i32, ptr), ptr @_ZN24G1PreConcurrentStartTaskC2EN7GCCause5CauseEP16G1ConcurrentMark

; Function Attrs: mustprogress nounwind uwtable
define linkonce_odr hidden noundef ptr @_ZN8Universe4heapEv() #1 comdat align 2 {
  %1 = load ptr, ptr @_ZN8Universe14_collectedHeapE, align 8
  ret ptr %1
}

; Function Attrs: mustprogress nounwind uwtable
define linkonce_odr hidden noundef ptr @_ZN13CollectedHeap10named_heapI15G1CollectedHeapEEPT_NS_4NameE(i32 noundef %0) #1 comdat align 2 {
  %2 = alloca i32, align 4
  %3 = alloca ptr, align 8
  store i32 %0, ptr %2, align 4
  %4 = call noundef ptr @_ZN8Universe4heapEv()
  store ptr %4, ptr %3, align 8
  %5 = load ptr, ptr %3, align 8
  ret ptr %5
}

; Function Attrs: mustprogress nounwind uwtable
define linkonce_odr hidden void @_ZN24G1PreConcurrentStartTaskD2Ev(ptr noundef nonnull align 8 dereferenceable(64) %0) unnamed_addr #1 comdat align 2 {
  %2 = alloca ptr, align 8
  store ptr %0, ptr %2, align 8
  %3 = load ptr, ptr %2, align 8
  call void @_ZN13G1BatchedTaskD2Ev(ptr noundef nonnull align 8 dereferenceable(64) %3) #11
  ret void
}

; Function Attrs: mustprogress nounwind uwtable
define linkonce_odr hidden noundef ptr @_ZN15G1CollectedHeap4heapEv() #1 comdat align 2 {
  %1 = call noundef ptr @_ZN13CollectedHeap10named_heapI15G1CollectedHeapEEPT_NS_4NameE(i32 noundef 3)
  ret ptr %1
}

; Function Attrs: mustprogress nounwind uwtable
define hidden void @_ZN16G1ConcurrentMark20pre_concurrent_startEN7GCCause5CauseE(ptr noundef nonnull align 8 dereferenceable(1849) %0, i32 noundef %1) #1 align 2 {
  %3 = alloca ptr, align 8
  %4 = alloca i32, align 4
  %5 = alloca %class.G1PreConcurrentStartTask, align 8
  store ptr %0, ptr %3, align 8
  store i32 %1, ptr %4, align 4
  %6 = load ptr, ptr %3, align 8
  br label %7

7:                                                ; preds = %2
  br label %8

8:                                                ; preds = %7
  call void @_ZN15G1CollectedHeap41start_codecache_marking_cycle_if_inactiveEb(i1 noundef zeroext true)
  call void @_ZN20ClassLoaderDataGraph28verify_claimed_marks_clearedEi(i32 noundef 3)
  %9 = load i32, ptr %4, align 4
  call void @_ZN24G1PreConcurrentStartTaskC1EN7GCCause5CauseEP16G1ConcurrentMark(ptr noundef nonnull align 8 dereferenceable(64) %5, i32 noundef %9, ptr noundef %6)
  %10 = call noundef ptr @_ZN15G1CollectedHeap4heapEv()
  call void @_ZN15G1CollectedHeap14run_batch_taskEP13G1BatchedTask(ptr noundef nonnull align 8 dereferenceable(1488) %10, ptr noundef %5)
  %11 = getelementptr inbounds %class.G1ConcurrentMark, ptr %6, i32 0, i32 22
  %12 = load ptr, ptr %11, align 8
  %13 = load i32, ptr %4, align 4
  call void @_ZN11G1OldTracer12set_gc_causeEN7GCCause5CauseE(ptr noundef nonnull align 8 dereferenceable(80) %12, i32 noundef %13)
  call void @_ZN24G1PreConcurrentStartTaskD2Ev(ptr noundef nonnull align 8 dereferenceable(64) %5) #11
  ret void
}