; Function Attrs: mustprogress nounwind uwtable
define hidden void @_ZN16G1ConcurrentMark20pre_concurrent_startEN7GCCause5CauseE(ptr noundef nonnull align 8 dereferenceable(1849) %0, i32 noundef %1) local_unnamed_addr #0 align 2 {
  %3 = alloca %class.G1PreConcurrentStartTask, align 8
  tail call void @_ZN15G1CollectedHeap41start_codecache_marking_cycle_if_inactiveEb(i1 noundef zeroext true) #22
  tail call void @_ZN20ClassLoaderDataGraph28verify_claimed_marks_clearedEi(i32 noundef 3) #22
  %4 = load ptr, ptr @_ZN8Universe14_collectedHeapE, align 8
  %5 = getelementptr inbounds i8, ptr %4, i64 1064
  %6 = load ptr, ptr %5, align 8
  %7 = tail call noundef ptr @_ZNK8G1Policy11phase_timesEv(ptr noundef nonnull align 8 dereferenceable(552) %6) #22
  call void @_ZN13G1BatchedTaskC2EPKcP14G1GCPhaseTimes(ptr noundef nonnull align 8 dereferenceable(64) %3, ptr noundef nonnull @.str.25, ptr noundef %7) #22
  store ptr getelementptr inbounds inrange(-16, 8) (i8, ptr @_ZTV24G1PreConcurrentStartTask, i64 16), ptr %3, align 8
  %8 = call noundef ptr @_Z12AllocateHeapm8MEMFLAGSN17AllocFailStrategy13AllocFailEnumE(i64 noundef 24, i8 noundef zeroext 5, i32 noundef 0) #22
  %9 = getelementptr inbounds i8, ptr %8, i64 8
  store i32 43, ptr %9, align 8
  store ptr getelementptr inbounds inrange(-16, 40) (i8, ptr @_ZTVN24G1PreConcurrentStartTask21ResetMarkingStateTaskE, i64 16), ptr %8, align 8
  %10 = getelementptr inbounds i8, ptr %8, i64 16
  store ptr %0, ptr %10, align 8
  call void @_ZN13G1BatchedTask15add_serial_taskEP17G1AbstractSubTask(ptr noundef nonnull align 8 dereferenceable(64) %3, ptr noundef nonnull %8) #22
  %11 = call noundef ptr @_Z12AllocateHeapm8MEMFLAGSN17AllocFailStrategy13AllocFailEnumE(i64 noundef 32, i8 noundef zeroext 5, i32 noundef 0) #22
  %12 = getelementptr inbounds i8, ptr %11, i64 8
  store i32 44, ptr %12, align 8
  store ptr getelementptr inbounds inrange(-16, 40) (i8, ptr @_ZTVN24G1PreConcurrentStartTask19NoteStartOfMarkTaskE, i64 16), ptr %11, align 8
  %13 = getelementptr inbounds i8, ptr %11, i64 16
  call void @_ZN19G1HeapRegionClaimerC1Ej(ptr noundef nonnull align 8 dereferenceable(16) %13, i32 noundef 0) #22
  call void @_ZN13G1BatchedTask17add_parallel_taskEP17G1AbstractSubTask(ptr noundef nonnull align 8 dereferenceable(64) %3, ptr noundef nonnull %11) #22
  %14 = load ptr, ptr @_ZN8Universe14_collectedHeapE, align 8
  call void @_ZN15G1CollectedHeap14run_batch_taskEP13G1BatchedTask(ptr noundef nonnull align 8 dereferenceable(1488) %14, ptr noundef nonnull %3) #22
  %15 = getelementptr inbounds i8, ptr %0, i64 1504
  %16 = load ptr, ptr %15, align 8
  call void @_ZN11G1OldTracer12set_gc_causeEN7GCCause5CauseE(ptr noundef nonnull align 8 dereferenceable(80) %16, i32 noundef %1) #22
  call void @_ZN13G1BatchedTaskD2Ev(ptr noundef nonnull align 8 dereferenceable(64) %3) #22
  ret void
}